; Function Attrs: nounwind uwtable
define ptr @l_Array_foldlMUnsafe_fold___at___private_Lean_Meta_Tactic_Grind_Arith_CommRing_Proof_0__Lean_Meta_Grind_Arith_CommRing_Stepwise_withProofContext_go___spec__15___boxed(ptr noundef %0, ptr noundef %1, ptr noundef %2, ptr noundef %3) local_unnamed_addr #1 {
  %5 = getelementptr i8, ptr %1, i64 8
  %.val15 = load i64, ptr %5, align 8, !tbaa !15
  %6 = ptrtoint ptr %1 to i64
  %7 = and i64 %6, 1
  %.not = icmp eq i64 %7, 0
  br i1 %.not, label %8, label %lean_dec.exit10

8:                                                ; preds = %4
  %9 = load i32, ptr %1, align 4, !tbaa !6
  %10 = icmp sgt i32 %9, 1
  br i1 %10, label %11, label %13, !prof !5

11:                                               ; preds = %8
  %12 = add nsw i32 %9, -1
  store i32 %12, ptr %1, align 4, !tbaa !6
  br label %lean_dec.exit10

13:                                               ; preds = %8
  %.not.i = icmp eq i32 %9, 0
  br i1 %.not.i, label %lean_dec.exit10, label %14

14:                                               ; preds = %13
  tail call void @lean_dec_ref_cold(ptr noundef nonnull %1) #6
  br label %lean_dec.exit10

lean_dec.exit10:                                  ; preds = %14, %13, %11, %4
  %15 = getelementptr i8, ptr %2, i64 8
  %.val = load i64, ptr %15, align 8, !tbaa !15
  %16 = ptrtoint ptr %2 to i64
  %17 = and i64 %16, 1
  %.not17 = icmp eq i64 %17, 0
  br i1 %.not17, label %18, label %lean_dec.exit9

18:                                               ; preds = %lean_dec.exit10
  %19 = load i32, ptr %2, align 4, !tbaa !6
  %20 = icmp sgt i32 %19, 1
  br i1 %20, label %21, label %23, !prof !5

21:                                               ; preds = %18
  %22 = add nsw i32 %19, -1
  store i32 %22, ptr %2, align 4, !tbaa !6
  br label %lean_dec.exit9

23:                                               ; preds = %18
  %.not.i11 = icmp eq i32 %19, 0
  br i1 %.not.i11, label %lean_dec.exit9, label %24

24:                                               ; preds = %23
  tail call void @lean_dec_ref_cold(ptr noundef nonnull %2) #6
  br label %lean_dec.exit9

lean_dec.exit9:                                   ; preds = %24, %23, %21, %lean_dec.exit10
  %.not27.i = icmp eq i64 %.val15, %.val
  br i1 %.not27.i, label %l_Array_foldlMUnsafe_fold___at___private_Lean_Meta_Tactic_Grind_Arith_CommRing_Proof_0__Lean_Meta_Grind_Arith_CommRing_Stepwise_withProofContext_go___spec__15.exit, label %.lr.ph.i

.lr.ph.i:                                         ; preds = %lean_dec.exit9
  %25 = getelementptr inbounds nuw i8, ptr %0, i64 24
  br label %26

26:                                               ; preds = %46, %.lr.ph.i
  %.01529.i = phi i64 [ %.val15, %.lr.ph.i ], [ %48, %46 ]
  %.01728.i = phi ptr [ %3, %.lr.ph.i ], [ %47, %46 ]
  %27 = getelementptr inbounds nuw [0 x ptr], ptr %25, i64 0, i64 %.01529.i
  %28 = load ptr, ptr %27, align 8, !tbaa !11
  %29 = ptrtoint ptr %28 to i64
  %30 = and i64 %29, 1
  %.not.i19.i = icmp eq i64 %30, 0
  br i1 %.not.i19.i, label %31, label %lean_array_uget.exit.i

31:                                               ; preds = %26
  %.val.i.i.i = load i32, ptr %28, align 4, !tbaa !6
  %32 = icmp sgt i32 %.val.i.i.i, 0
  br i1 %32, label %33, label %35, !prof !5

33:                                               ; preds = %31
  %34 = add nuw i32 %.val.i.i.i, 1
  store i32 %34, ptr %28, align 4, !tbaa !6
  br label %38

35:                                               ; preds = %31
  %.not.i.i.i = icmp eq i32 %.val.i.i.i, 0
  br i1 %.not.i.i.i, label %38, label %36

36:                                               ; preds = %35
  tail call void @lean_inc_ref_cold(ptr noundef nonnull %28) #6
  br label %38

lean_array_uget.exit.i:                           ; preds = %26
  %37 = tail call ptr @l_Std_DHashMap_Internal_AssocList_foldlM___at___private_Lean_Meta_Tactic_Grind_Arith_CommRing_Proof_0__Lean_Meta_Grind_Arith_CommRing_Stepwise_withProofContext_go___spec__12(ptr noundef %.01728.i, ptr noundef %28)
  br label %46

38:                                               ; preds = %36, %35, %33
  %39 = tail call ptr @l_Std_DHashMap_Internal_AssocList_foldlM___at___private_Lean_Meta_Tactic_Grind_Arith_CommRing_Proof_0__Lean_Meta_Grind_Arith_CommRing_Stepwise_withProofContext_go___spec__12(ptr noundef %.01728.i, ptr noundef nonnull %28)
  %40 = load i32, ptr %28, align 4, !tbaa !6
  %41 = icmp sgt i32 %40, 1
  br i1 %41, label %42, label %44, !prof !5

42:                                               ; preds = %38
  %43 = add nsw i32 %40, -1
  store i32 %43, ptr %28, align 4, !tbaa !6
  br label %46

44:                                               ; preds = %38
  %.not.i.i = icmp eq i32 %40, 0
  br i1 %.not.i.i, label %46, label %45

45:                                               ; preds = %44
  tail call void @lean_dec_ref_cold(ptr noundef nonnull %28) #6
  br label %46

46:                                               ; preds = %45, %44, %42, %lean_array_uget.exit.i
  %47 = phi ptr [ %37, %lean_array_uget.exit.i ], [ %39, %42 ], [ %39, %44 ], [ %39, %45 ]
  %48 = add i64 %.01529.i, 1
  %.not.i16 = icmp eq i64 %48, %.val
  br i1 %.not.i16, label %l_Array_foldlMUnsafe_fold___at___private_Lean_Meta_Tactic_Grind_Arith_CommRing_Proof_0__Lean_Meta_Grind_Arith_CommRing_Stepwise_withProofContext_go___spec__15.exit, label %26

l_Array_foldlMUnsafe_fold___at___private_Lean_Meta_Tactic_Grind_Arith_CommRing_Proof_0__Lean_Meta_Grind_Arith_CommRing_Stepwise_withProofContext_go___spec__15.exit: ; preds = %46, %lean_dec.exit9
  %.017.lcssa.i = phi ptr [ %3, %lean_dec.exit9 ], [ %47, %46 ]
  %49 = ptrtoint ptr %0 to i64
  %50 = and i64 %49, 1
  %.not18 = icmp eq i64 %50, 0
  br i1 %.not18, label %51, label %lean_dec.exit

51:                                               ; preds = %l_Array_foldlMUnsafe_fold___at___private_Lean_Meta_Tactic_Grind_Arith_CommRing_Proof_0__Lean_Meta_Grind_Arith_CommRing_Stepwise_withProofContext_go___spec__15.exit
  %52 = load i32, ptr %0, align 4, !tbaa !6
  %53 = icmp sgt i32 %52, 1
  br i1 %53, label %54, label %56, !prof !5

54:                                               ; preds = %51
  %55 = add nsw i32 %52, -1
  store i32 %55, ptr %0, align 4, !tbaa !6
  br label %lean_dec.exit

56:                                               ; preds = %51
  %.not.i13 = icmp eq i32 %52, 0
  br i1 %.not.i13, label %lean_dec.exit, label %57

57:                                               ; preds = %56
  tail call void @lean_dec_ref_cold(ptr noundef nonnull %0) #6
  br label %lean_dec.exit

lean_dec.exit:                                    ; preds = %57, %56, %54, %l_Array_foldlMUnsafe_fold___at___private_Lean_Meta_Tactic_Grind_Arith_CommRing_Proof_0__Lean_Meta_Grind_Arith_CommRing_Stepwise_withProofContext_go___spec__15.exit
  ret ptr %.017.lcssa.i
}